; Function Attrs: nofree norecurse nosync nounwind memory(read, argmem: readwrite, inaccessiblemem: none) uwtable
define internal void @filter_prewitt(ptr noundef writeonly captures(none) %0, i32 noundef %1, float noundef %2, float noundef %3, ptr readnone captures(none) %4, ptr noundef readonly captures(none) %5, i32 %6, i32 %7, i32 %8, i32 %9, i32 %10) #6 {
  %12 = load ptr, ptr %5, align 8, !tbaa !46
  %13 = getelementptr inbounds nuw i8, ptr %5, i64 8
  %14 = load ptr, ptr %13, align 8, !tbaa !46
  %15 = getelementptr inbounds nuw i8, ptr %5, i64 16
  %16 = load ptr, ptr %15, align 8, !tbaa !46
  %17 = getelementptr inbounds nuw i8, ptr %5, i64 24
  %18 = load ptr, ptr %17, align 8, !tbaa !46
  %19 = getelementptr inbounds nuw i8, ptr %5, i64 40
  %20 = load ptr, ptr %19, align 8, !tbaa !46
  %21 = getelementptr inbounds nuw i8, ptr %5, i64 48
  %22 = load ptr, ptr %21, align 8, !tbaa !46
  %23 = getelementptr inbounds nuw i8, ptr %5, i64 56
  %24 = load ptr, ptr %23, align 8, !tbaa !46
  %25 = getelementptr inbounds nuw i8, ptr %5, i64 64
  %26 = load ptr, ptr %25, align 8, !tbaa !46
  %27 = icmp sgt i32 %1, 0
  br i1 %27, label %.lr.ph.preheader, label %._crit_edge

.lr.ph.preheader:                                 ; preds = %11
  %wide.trip.count = zext nneg i32 %1 to i64
  br label %.lr.ph

.lr.ph:                                           ; preds = %.lr.ph.preheader, %.lr.ph
  %indvars.iv = phi i64 [ 0, %.lr.ph.preheader ], [ %indvars.iv.next, %.lr.ph ]
  %28 = getelementptr inbounds nuw i8, ptr %12, i64 %indvars.iv
  %29 = load i8, ptr %28, align 1, !tbaa !82
  %30 = zext i8 %29 to i32
  %31 = getelementptr inbounds nuw i8, ptr %14, i64 %indvars.iv
  %32 = load i8, ptr %31, align 1, !tbaa !82
  %33 = zext i8 %32 to i32
  %34 = getelementptr inbounds nuw i8, ptr %16, i64 %indvars.iv
  %35 = load i8, ptr %34, align 1, !tbaa !82
  %36 = zext i8 %35 to i32
  %37 = getelementptr inbounds nuw i8, ptr %22, i64 %indvars.iv
  %38 = load i8, ptr %37, align 1, !tbaa !82
  %39 = zext i8 %38 to i32
  %40 = add nuw nsw i32 %33, %30
  %41 = add nuw nsw i32 %40, %36
  %42 = sub nsw i32 %39, %41
  %43 = getelementptr inbounds nuw i8, ptr %24, i64 %indvars.iv
  %44 = load i8, ptr %43, align 1, !tbaa !82
  %45 = zext i8 %44 to i32
  %46 = add nsw i32 %42, %45
  %47 = getelementptr inbounds nuw i8, ptr %26, i64 %indvars.iv
  %48 = load i8, ptr %47, align 1, !tbaa !82
  %49 = zext i8 %48 to i32
  %50 = add nsw i32 %46, %49
  %51 = sitofp i32 %50 to float
  %52 = getelementptr inbounds nuw i8, ptr %18, i64 %indvars.iv
  %53 = load i8, ptr %52, align 1, !tbaa !82
  %54 = zext i8 %53 to i32
  %55 = getelementptr inbounds nuw i8, ptr %20, i64 %indvars.iv
  %56 = load i8, ptr %55, align 1, !tbaa !82
  %57 = zext i8 %56 to i32
  %58 = add nuw nsw i32 %30, %39
  %59 = add nuw nsw i32 %36, %49
  %60 = add nuw nsw i32 %58, %54
  %61 = sub nsw i32 %59, %60
  %62 = add nsw i32 %61, %57
  %63 = sitofp i32 %62 to float
  %64 = fmul nsz float %63, %63
  %65 = tail call nsz float @llvm.fmuladd.f32(float %51, float %51, float %64)
  %66 = tail call nsz float @llvm.sqrt.f32(float %65)
  %67 = tail call nsz float @llvm.fmuladd.f32(float %66, float %2, float %3)
  %68 = fptosi float %67 to i32
  %.not.i = icmp ult i32 %68, 256
  %isnotneg.i = icmp sgt i32 %68, -1
  %69 = sext i1 %isnotneg.i to i8
  %70 = trunc nuw i32 %68 to i8
  %.0.i = select i1 %.not.i, i8 %70, i8 %69
  %71 = getelementptr inbounds nuw i8, ptr %0, i64 %indvars.iv
  store i8 %.0.i, ptr %71, align 1, !tbaa !82
  %indvars.iv.next = add nuw nsw i64 %indvars.iv, 1
  %exitcond.not = icmp eq i64 %indvars.iv.next, %wide.trip.count
  br i1 %exitcond.not, label %._crit_edge, label %.lr.ph, !llvm.loop !99

._crit_edge:                                      ; preds = %.lr.ph, %11
  ret void
}